target datalayout = "e-m:e-p270:32:32-p271:32:32-p272:64:64-i64:64-i128:128-f80:128-n8:16:32:64-S128"
target triple = "x86_64-pc-linux-gnu"

%struct.git_hash_algo = type { ptr, i32, i64, i64, i64, ptr, ptr, ptr, ptr, ptr, ptr, ptr, ptr, ptr }
%struct.object_id = type { [32 x i8], i32 }
%struct.hashmap = type { ptr, ptr, ptr, i32, i32, i32, i32, i8 }
%struct.commit = type { %struct.object, i64, ptr, ptr, i32 }
%struct.object = type { i32, %struct.object_id }
%struct.commit_list = type { ptr, ptr }
%struct.repository = type { ptr, ptr, ptr, ptr, ptr, %struct.strmap, %struct.strmap, %struct.repo_path_cache, ptr, ptr, ptr, ptr, %struct.repo_settings, ptr, ptr, ptr, ptr, ptr, ptr, i32, i32, i32, ptr, ptr, i32, i32, i8 }
%struct.strmap = type { %struct.hashmap, ptr, i8 }
%struct.repo_path_cache = type { ptr, ptr, ptr, ptr, ptr, ptr, ptr }
%struct.repo_settings = type { i32, i32, i32, i32, i32, i32, i32, i32, i32, i32, i32, i32, ptr, i32, i32, i32, i32, i32, i32, i32, i64, i64, i64 }

@the_repository = external global ptr, align 8
@.str.46 = private unnamed_addr constant [1 x i8] zeroinitializer, align 1
@git_gettext_enabled = external global i32, align 4
@.str.255 = private unnamed_addr constant [26 x i8] c"could not parse commit %s\00", align 1
@.str.455 = private unnamed_addr constant [33 x i8] c"could not parse parent commit %s\00", align 1

; Function Attrs: inlinehint nounwind uwtable
define internal i32 @oideq(ptr noundef %0, ptr noundef %1) #1 {
  %3 = alloca ptr, align 8
  %4 = alloca ptr, align 8
  store ptr %0, ptr %3, align 8, !tbaa !84
  store ptr %1, ptr %4, align 8, !tbaa !84
  %5 = load ptr, ptr %3, align 8, !tbaa !84
  %6 = getelementptr inbounds nuw %struct.object_id, ptr %5, i32 0, i32 0
  %7 = getelementptr inbounds [32 x i8], ptr %6, i64 0, i64 0
  %8 = load ptr, ptr %4, align 8, !tbaa !84
  %9 = getelementptr inbounds nuw %struct.object_id, ptr %8, i32 0, i32 0
  %10 = getelementptr inbounds [32 x i8], ptr %9, i64 0, i64 0
  %11 = call i32 @memcmp(ptr noundef %7, ptr noundef %10, i64 noundef 32) #12
  %12 = icmp ne i32 %11, 0
  %13 = xor i1 %12, true
  %14 = zext i1 %13 to i32
  ret i32 %14
}

; Function Attrs: inlinehint nounwind uwtable
define internal i32 @const_error() #1 {
  ret i32 -1
}

; Function Attrs: inlinehint nounwind uwtable
define internal ptr @_(ptr noundef %0) #1 {
  %2 = alloca ptr, align 8
  %3 = alloca ptr, align 8
  store ptr %0, ptr %3, align 8, !tbaa !4
  %4 = load ptr, ptr %3, align 8, !tbaa !4
  %5 = load i8, ptr %4, align 1, !tbaa !30
  %6 = icmp ne i8 %5, 0
  br i1 %6, label %8, label %7

7:                                                ; preds = %1
  store ptr @.str.46, ptr %2, align 8
  br label %16

8:                                                ; preds = %1
  %9 = load i32, ptr @git_gettext_enabled, align 4, !tbaa !29
  %10 = icmp ne i32 %9, 0
  br i1 %10, label %13, label %11

11:                                               ; preds = %8
  %12 = load ptr, ptr %3, align 8, !tbaa !4
  store ptr %12, ptr %2, align 8
  br label %16

13:                                               ; preds = %8
  %14 = load ptr, ptr %3, align 8, !tbaa !4
  %15 = call ptr @dcgettext(ptr noundef null, ptr noundef %14, i32 noundef 5) #11
  store ptr %15, ptr %2, align 8
  br label %16

16:                                               ; preds = %13, %11, %7
  %17 = load ptr, ptr %2, align 8
  ret ptr %17
}

; Function Attrs: inlinehint nounwind uwtable
define internal i32 @repo_parse_commit(ptr noundef %0, ptr noundef %1) #1 {
  %3 = alloca ptr, align 8
  %4 = alloca ptr, align 8
  store ptr %0, ptr %3, align 8, !tbaa !9
  store ptr %1, ptr %4, align 8, !tbaa !82
  %5 = load ptr, ptr %3, align 8, !tbaa !9
  %6 = load ptr, ptr %4, align 8, !tbaa !82
  %7 = call i32 @repo_parse_commit_gently(ptr noundef %5, ptr noundef %6, i32 noundef 0)
  ret i32 %7
}

; Function Attrs: nounwind uwtable
define internal i32 @is_original_commit_empty(ptr noundef %0) #0 {
  %2 = alloca i32, align 4
  %3 = alloca ptr, align 8
  %4 = alloca ptr, align 8
  %5 = alloca i32, align 4
  %6 = alloca ptr, align 8
  store ptr %0, ptr %3, align 8, !tbaa !82
  call void @llvm.lifetime.start.p0(i64 8, ptr %4) #11
  %7 = load ptr, ptr @the_repository, align 8, !tbaa !9
  %8 = load ptr, ptr %3, align 8, !tbaa !82
  %9 = call i32 @repo_parse_commit(ptr noundef %7, ptr noundef %8)
  %10 = icmp ne i32 %9, 0
  br i1 %10, label %11, label %19

11:                                               ; preds = %1
  %12 = call ptr @_(ptr noundef @.str.255)
  %13 = load ptr, ptr %3, align 8, !tbaa !82
  %14 = getelementptr inbounds nuw %struct.commit, ptr %13, i32 0, i32 0
  %15 = getelementptr inbounds nuw %struct.object, ptr %14, i32 0, i32 1
  %16 = call ptr @oid_to_hex(ptr noundef %15)
  %17 = call i32 (ptr, ...) @error(ptr noundef %12, ptr noundef %16)
  %18 = call i32 @const_error()
  store i32 %18, ptr %2, align 4
  store i32 1, ptr %5, align 4
  br label %59

19:                                               ; preds = %1
  %20 = load ptr, ptr %3, align 8, !tbaa !82
  %21 = getelementptr inbounds nuw %struct.commit, ptr %20, i32 0, i32 2
  %22 = load ptr, ptr %21, align 8, !tbaa !159
  %23 = icmp ne ptr %22, null
  br i1 %23, label %24, label %48

24:                                               ; preds = %19
  call void @llvm.lifetime.start.p0(i64 8, ptr %6) #11
  %25 = load ptr, ptr %3, align 8, !tbaa !82
  %26 = getelementptr inbounds nuw %struct.commit, ptr %25, i32 0, i32 2
  %27 = load ptr, ptr %26, align 8, !tbaa !159
  %28 = getelementptr inbounds nuw %struct.commit_list, ptr %27, i32 0, i32 0
  %29 = load ptr, ptr %28, align 8, !tbaa !265
  store ptr %29, ptr %6, align 8, !tbaa !82
  %30 = load ptr, ptr @the_repository, align 8, !tbaa !9
  %31 = load ptr, ptr %6, align 8, !tbaa !82
  %32 = call i32 @repo_parse_commit(ptr noundef %30, ptr noundef %31)
  %33 = icmp ne i32 %32, 0
  br i1 %33, label %34, label %42

34:                                               ; preds = %24
  %35 = call ptr @_(ptr noundef @.str.455)
  %36 = load ptr, ptr %6, align 8, !tbaa !82
  %37 = getelementptr inbounds nuw %struct.commit, ptr %36, i32 0, i32 0
  %38 = getelementptr inbounds nuw %struct.object, ptr %37, i32 0, i32 1
  %39 = call ptr @oid_to_hex(ptr noundef %38)
  %40 = call i32 (ptr, ...) @error(ptr noundef %35, ptr noundef %39)
  %41 = call i32 @const_error()
  store i32 %41, ptr %2, align 4
  store i32 1, ptr %5, align 4
  br label %45

42:                                               ; preds = %24
  %43 = load ptr, ptr %6, align 8, !tbaa !82
  %44 = call ptr @get_commit_tree_oid(ptr noundef %43)
  store ptr %44, ptr %4, align 8, !tbaa !84
  store i32 0, ptr %5, align 4
  br label %45

45:                                               ; preds = %42, %34
  call void @llvm.lifetime.end.p0(i64 8, ptr %6) #11
  %46 = load i32, ptr %5, align 4
  switch i32 %46, label %59 [
    i32 0, label %47
  ]

47:                                               ; preds = %45
  br label %54

48:                                               ; preds = %19
  %49 = load ptr, ptr @the_repository, align 8, !tbaa !9
  %50 = getelementptr inbounds nuw %struct.repository, ptr %49, i32 0, i32 17
  %51 = load ptr, ptr %50, align 8, !tbaa !179
  %52 = getelementptr inbounds nuw %struct.git_hash_algo, ptr %51, i32 0, i32 10
  %53 = load ptr, ptr %52, align 8, !tbaa !274
  store ptr %53, ptr %4, align 8, !tbaa !84
  br label %54

54:                                               ; preds = %48, %47
  %55 = load ptr, ptr %4, align 8, !tbaa !84
  %56 = load ptr, ptr %3, align 8, !tbaa !82
  %57 = call ptr @get_commit_tree_oid(ptr noundef %56)
  %58 = call i32 @oideq(ptr noundef %55, ptr noundef %57)
  store i32 %58, ptr %2, align 4
  store i32 1, ptr %5, align 4
  br label %59

59:                                               ; preds = %54, %45, %11
  call void @llvm.lifetime.end.p0(i64 8, ptr %4) #11
  %60 = load i32, ptr %2, align 4
  ret i32 %60
}