; Function Attrs: nounwind uwtable
define internal fastcc range(i32 -1, 2) i32 @is_original_commit_empty(ptr noundef %0) unnamed_addr #0 {
  %2 = load ptr, ptr @the_repository, align 8, !tbaa !9
  %3 = tail call i32 @repo_parse_commit_gently(ptr noundef %2, ptr noundef %0, i32 noundef 0) #20
  %.not = icmp eq i32 %3, 0
  br i1 %.not, label %11, label %4

4:                                                ; preds = %1
  %5 = load i32, ptr @git_gettext_enabled, align 4, !tbaa !21
  %.not4.i = icmp eq i32 %5, 0
  br i1 %.not4.i, label %_.exit, label %6

6:                                                ; preds = %4
  %7 = tail call ptr @dcgettext(ptr noundef null, ptr noundef nonnull @.str.255, i32 noundef 5) #20
  br label %_.exit

_.exit:                                           ; preds = %4, %6
  %.0.i = phi ptr [ %7, %6 ], [ @.str.255, %4 ]
  %8 = getelementptr inbounds nuw i8, ptr %0, i64 4
  %9 = tail call ptr @oid_to_hex(ptr noundef nonnull %8) #20
  %10 = tail call i32 (ptr, ...) @error(ptr noundef %.0.i, ptr noundef %9) #20
  br label %36

11:                                               ; preds = %1
  %12 = getelementptr inbounds nuw i8, ptr %0, i64 48
  %13 = load ptr, ptr %12, align 8, !tbaa !131
  %.not14 = icmp eq ptr %13, null
  br i1 %.not14, label %27, label %14

14:                                               ; preds = %11
  %15 = load ptr, ptr %13, align 8, !tbaa !217
  %16 = load ptr, ptr @the_repository, align 8, !tbaa !9
  %17 = tail call i32 @repo_parse_commit_gently(ptr noundef %16, ptr noundef %15, i32 noundef 0) #20
  %.not15 = icmp eq i32 %17, 0
  br i1 %.not15, label %.thread, label %18

18:                                               ; preds = %14
  %19 = load i32, ptr @git_gettext_enabled, align 4, !tbaa !21
  %.not4.i16 = icmp eq i32 %19, 0
  br i1 %.not4.i16, label %23, label %20

20:                                               ; preds = %18
  %21 = tail call ptr @dcgettext(ptr noundef null, ptr noundef nonnull @.str.455, i32 noundef 5) #20
  br label %23

.thread:                                          ; preds = %14
  %22 = tail call ptr @get_commit_tree_oid(ptr noundef %15) #20
  br label %33

23:                                               ; preds = %20, %18
  %.0.i17 = phi ptr [ %21, %20 ], [ @.str.455, %18 ]
  %24 = getelementptr inbounds nuw i8, ptr %15, i64 4
  %25 = tail call ptr @oid_to_hex(ptr noundef nonnull %24) #20
  %26 = tail call i32 (ptr, ...) @error(ptr noundef %.0.i17, ptr noundef %25) #20
  br label %36

27:                                               ; preds = %11
  %28 = load ptr, ptr @the_repository, align 8, !tbaa !9
  %29 = getelementptr inbounds nuw i8, ptr %28, i64 400
  %30 = load ptr, ptr %29, align 8, !tbaa !151
  %31 = getelementptr inbounds nuw i8, ptr %30, i64 80
  %32 = load ptr, ptr %31, align 8, !tbaa !195
  br label %33

33:                                               ; preds = %.thread, %27
  %.112 = phi ptr [ %32, %27 ], [ %22, %.thread ]
  %34 = tail call ptr @get_commit_tree_oid(ptr noundef nonnull %0) #20
  %bcmp.i = tail call i32 @bcmp(ptr noundef nonnull readonly dereferenceable(32) %.112, ptr noundef nonnull readonly dereferenceable(32) %34, i64 32)
  %.not.i = icmp eq i32 %bcmp.i, 0
  %35 = zext i1 %.not.i to i32
  br label %36

36:                                               ; preds = %23, %33, %_.exit
  %.0 = phi i32 [ -1, %_.exit ], [ %35, %33 ], [ -1, %23 ]
  ret i32 %.0
}